target datalayout = "e-m:e-p270:32:32-p271:32:32-p272:64:64-i64:64-i128:128-f80:128-n8:16:32:64-S128"
target triple = "x86_64-pc-linux-gnu"

@argsCount = internal global i64 1, align 8
@relaunch = internal global i8 0, align 1
@stopExpansion = internal global i8 0, align 1
@expectingNoDashArg = internal global i8 0, align 1
@firstAppArgIndex = internal global i32 -1, align 4

; Function Attrs: nounwind uwtable
define void @JLI_InitArgProcessing(i8 noundef zeroext %0, i8 noundef zeroext %1) #0 {
  %3 = alloca i8, align 1
  %4 = alloca i8, align 1
  store i8 %0, ptr %3, align 1
  store i8 %1, ptr %4, align 1
  %5 = load i64, ptr @argsCount, align 8
  %6 = icmp ne i64 %5, 1
  br i1 %6, label %7, label %8

7:                                                ; preds = %2
  store i8 1, ptr @relaunch, align 1
  store i8 1, ptr @stopExpansion, align 1
  store i64 1, ptr @argsCount, align 8
  br label %10

8:                                                ; preds = %2
  %9 = load i8, ptr %4, align 1
  store i8 %9, ptr @stopExpansion, align 1
  br label %10

10:                                               ; preds = %8, %7
  store i8 0, ptr @expectingNoDashArg, align 1
  %11 = load i8, ptr %3, align 1
  %12 = zext i8 %11 to i32
  %13 = icmp ne i32 %12, 0
  %14 = select i1 %13, i32 0, i32 -1
  store i32 %14, ptr @firstAppArgIndex, align 4
  ret void
}