; Function Attrs: mustprogress nofree norecurse nosync nounwind willreturn memory(readwrite, argmem: none, inaccessiblemem: none) uwtable
define void @JLI_InitArgProcessing(i8 noundef zeroext %0, i8 noundef zeroext %1) local_unnamed_addr #0 {
  %3 = load i64, ptr @argsCount, align 8
  %.not = icmp eq i64 %3, 1
  br i1 %.not, label %5, label %4

4:                                                ; preds = %2
  store i1 true, ptr @relaunch, align 1
  store i64 1, ptr @argsCount, align 8
  br label %5

5:                                                ; preds = %2, %4
  %.sink = phi i8 [ 1, %4 ], [ %1, %2 ]
  store i8 %.sink, ptr @stopExpansion, align 1
  store i1 false, ptr @expectingNoDashArg, align 1
  %.not2 = icmp eq i8 %0, 0
  %6 = sext i1 %.not2 to i32
  store i32 %6, ptr @firstAppArgIndex, align 4
  ret void
}